Certificate:
    Data:
        Version: 3 (0x2)
        Serial Number:
            4c:e6:63:23:77:5b:28:38:0e:80:a9:d4:74:62:33:0d
        Signature Algorithm: sha256WithRSAEncryption
        Issuer: CN=Easy-RSA CA
        Validity
            Not Before: Jun 22 04:17:15 2022 GMT
            Not After : Sep 24 04:17:15 2024 GMT
        Subject: CN=clientvpn01.cloudacia.net
        Subject Public Key Info:
            Public Key Algorithm: rsaEncryption
                RSA Public-Key: (2048 bit)
                Modulus:
                    00:bf:0f:49:ea:19:c1:c4:a6:45:c1:8f:87:05:aa:
                    4b:92:69:f4:9c:b0:d8:a7:b8:fd:ad:78:c4:75:b1:
                    19:c8:82:ec:65:ad:13:95:0b:58:df:53:a5:43:a1:
                    a7:ad:29:6f:62:a2:66:1d:69:73:91:0a:f1:2f:1d:
                    79:2b:9b:d3:20:16:ad:b5:e5:b7:cd:20:ae:d0:10:
                    de:e2:a8:23:ca:f6:a3:1f:fa:c1:09:e6:c2:8b:84:
                    85:d3:92:4c:b4:bb:a1:8b:b0:89:74:cf:c1:42:85:
                    5a:32:6f:b7:7d:5d:d0:fd:d9:ba:0e:da:a9:26:09:
                    2f:24:54:70:96:36:17:e1:87:27:bf:0c:6d:1d:e3:
                    94:da:3d:d9:6d:3d:10:09:ee:98:57:22:c7:95:46:
                    ed:65:b8:70:89:ea:f2:2c:ff:18:70:7b:ee:75:9a:
                    2c:b3:5f:07:ad:d2:44:2d:2f:3c:2e:63:84:bf:04:
                    ee:e6:dc:04:66:49:e5:83:eb:d9:0d:14:ec:ea:86:
                    6f:fe:df:67:6b:9e:85:a1:e1:25:fc:1c:48:66:8a:
                    a4:bd:fd:26:eb:2c:0d:38:18:bd:6f:d5:5c:a2:2e:
                    49:4f:b0:21:fa:7b:e4:76:55:fa:18:8b:39:bc:93:
                    57:36:c7:30:eb:41:44:d7:3e:7e:6a:d7:e7:1d:bd:
                    1f:05
                Exponent: 65537 (0x10001)
        X509v3 extensions:
            X509v3 Basic Constraints: 
                CA:FALSE
            X509v3 Subject Key Identifier: 
                FD:A7:93:86:91:F8:F6:6D:2B:41:2E:D4:F1:22:79:3E:6B:4E:30:2A
            X509v3 Authority Key Identifier: 
                keyid:F8:DD:BA:23:67:4A:36:7B:DA:C1:DC:CB:C9:47:9C:45:46:CB:57:98
                DirName:/CN=Easy-RSA CA
                serial:71:E0:80:81:D9:3F:F4:21:B0:7B:B1:98:6D:60:3C:66:8C:8C:EA:82

            X509v3 Extended Key Usage: 
                TLS Web Client Authentication
            X509v3 Key Usage: 
                Digital Signature
    Signature Algorithm: sha256WithRSAEncryption
         6b:e2:13:5a:85:80:04:ce:f3:55:fa:b1:06:f4:b9:00:0d:94:
         f1:a6:41:94:b6:3f:ed:af:ab:ea:8d:b9:4a:0a:d0:0f:9d:a8:
         af:35:da:53:92:0c:20:2d:f2:7a:90:66:94:df:c3:9e:da:be:
         b5:0a:f4:65:58:ab:fc:7d:a5:96:31:bd:28:74:b7:9e:6b:50:
         4a:5b:7d:d1:2a:68:cf:3c:e3:7a:79:89:af:90:8e:77:18:46:
         08:e6:b5:a4:6d:ad:4a:24:a8:a7:61:f5:d5:ab:10:52:f0:92:
         d0:5a:71:27:f7:0c:ec:b7:3c:fe:bd:1a:71:6e:3e:fc:26:de:
         7c:10:57:66:b4:d4:d0:0d:39:c5:fe:9a:0d:df:3f:22:4e:fd:
         e7:db:76:d6:41:d3:b0:d4:e9:05:bf:30:91:00:34:dd:6e:29:
         51:d3:78:b8:4c:a1:43:b4:5f:ac:93:84:00:a6:04:7a:18:4e:
         11:d8:81:ed:c3:e1:b8:fa:3d:14:f5:ea:0a:74:d9:46:ff:3f:
         9b:b6:04:63:b5:43:b5:cd:15:6e:9d:38:6e:51:2e:bc:13:6f:
         f4:f6:cf:71:d4:f1:4b:3d:b9:ec:f1:86:ae:08:7b:a3:49:d2:
         3a:ab:fe:76:31:76:02:7d:58:6b:b3:0c:06:c9:81:2b:6a:89:
         f5:35:e4:56
-----BEGIN CERTIFICATE-----
MIIDZzCCAk+gAwIBAgIQTOZjI3dbKDgOgKnUdGIzDTANBgkqhkiG9w0BAQsFADAW
MRQwEgYDVQQDDAtFYXN5LVJTQSBDQTAeFw0yMjA2MjIwNDE3MTVaFw0yNDA5MjQw
NDE3MTVaMCQxIjAgBgNVBAMMGWNsaWVudHZwbjAxLmNsb3VkYWNpYS5uZXQwggEi
MA0GCSqGSIb3DQEBAQUAA4IBDwAwggEKAoIBAQC/D0nqGcHEpkXBj4cFqkuSafSc
sNinuP2teMR1sRnIguxlrROVC1jfU6VDoaetKW9iomYdaXORCvEvHXkrm9MgFq21
5bfNIK7QEN7iqCPK9qMf+sEJ5sKLhIXTkky0u6GLsIl0z8FChVoyb7d9XdD92boO
2qkmCS8kVHCWNhfhhye/DG0d45TaPdltPRAJ7phXIseVRu1luHCJ6vIs/xhwe+51
miyzXwet0kQtLzwuY4S/BO7m3ARmSeWD69kNFOzqhm/+32drnoWh4SX8HEhmiqS9
/SbrLA04GL1v1VyiLklPsCH6e+R2VfoYizm8k1c2xzDrQUTXPn5q1+cdvR8FAgMB
AAGjgaIwgZ8wCQYDVR0TBAIwADAdBgNVHQ4EFgQU/aeThpH49m0rQS7U8SJ5PmtO
MCowUQYDVR0jBEowSIAU+N26I2dKNnvawdzLyUecRUbLV5ihGqQYMBYxFDASBgNV
BAMMC0Vhc3ktUlNBIENBghRx4ICB2T/0IbB7sZhtYDxmjIzqgjATBgNVHSUEDDAK
BggrBgEFBQcDAjALBgNVHQ8EBAMCB4AwDQYJKoZIhvcNAQELBQADggEBAGviE1qF
gATO81X6sQb0uQANlPGmQZS2P+2vq+qNuUoK0A+dqK812lOSDCAt8nqQZpTfw57a
vrUK9GVYq/x9pZYxvSh0t55rUEpbfdEqaM8843p5ia+QjncYRgjmtaRtrUokqKdh
9dWrEFLwktBacSf3DOy3PP69GnFuPvwm3nwQV2a01NANOcX+mg3fPyJO/efbdtZB
07DU6QW/MJEANN1uKVHTeLhMoUO0X6yThACmBHoYThHYge3D4bj6PRT16gp02Ub/
P5u2BGO1Q7XNFW6dOG5RLrwTb/T2z3HU8Us9uezxhq4Ie6NJ0jqr/nYxdgJ9WGuz
DAbJgStqifU15FY=
-----END CERTIFICATE-----
