Certificate:
    Data:
        Version: 3 (0x2)
        Serial Number:
            77:1d:0e:8c:85:00:eb:6b:eb:17:4d:f4:60:eb:1b:04
        Signature Algorithm: sha256WithRSAEncryption
        Issuer: CN=Easy-RSA CA
        Validity
            Not Before: Jun 22 04:17:52 2022 GMT
            Not After : Sep 24 04:17:52 2024 GMT
        Subject: CN=servervpn01.cloudacia.net
        Subject Public Key Info:
            Public Key Algorithm: rsaEncryption
                RSA Public-Key: (2048 bit)
                Modulus:
                    00:c0:77:d5:95:c3:0a:91:33:03:ee:ab:92:2b:8f:
                    b4:f8:b8:53:0d:12:ff:cf:69:93:f9:d4:8f:95:20:
                    d3:13:c0:a4:ad:55:30:17:2c:c5:a4:c7:f7:0b:e8:
                    10:3b:3a:28:98:15:bf:c2:f8:61:09:42:5e:c8:27:
                    77:a3:0a:a3:c6:76:a2:23:fe:8f:0a:00:89:59:bb:
                    20:1a:24:b7:75:8a:4d:8d:2d:2d:7d:52:91:93:13:
                    2e:78:00:f7:c8:a4:c0:24:80:30:e4:10:94:30:3b:
                    0d:43:c6:4e:21:51:85:01:74:c0:13:43:20:3c:c6:
                    53:be:d7:12:d0:24:b7:49:de:0f:c4:dd:c5:18:3f:
                    69:a0:64:b9:fa:10:69:3d:1f:71:93:8f:81:ac:5d:
                    7c:3b:cc:d7:ab:40:fa:bc:2b:24:b7:f1:c5:47:c0:
                    39:64:d1:ed:9b:14:b5:b5:91:35:d6:d3:75:a7:13:
                    0a:49:f3:c5:40:57:9f:36:8c:f0:41:e5:69:21:56:
                    df:4d:95:f3:6d:18:b1:ef:3c:a4:10:f7:b0:7c:d0:
                    d8:3d:a6:ed:0b:35:20:89:73:2c:77:f0:21:eb:5a:
                    fe:79:ed:5c:23:8a:ec:ab:e0:ee:17:cc:0c:59:cd:
                    14:60:1e:22:f1:ee:30:43:e6:5d:ee:3a:5d:22:74:
                    c5:5b
                Exponent: 65537 (0x10001)
        X509v3 extensions:
            X509v3 Basic Constraints: 
                CA:FALSE
            X509v3 Subject Key Identifier: 
                D6:4B:B7:44:1B:BF:C8:A5:51:3E:12:5E:6B:8F:19:62:FB:4B:45:9F
            X509v3 Authority Key Identifier: 
                keyid:F8:DD:BA:23:67:4A:36:7B:DA:C1:DC:CB:C9:47:9C:45:46:CB:57:98
                DirName:/CN=Easy-RSA CA
                serial:71:E0:80:81:D9:3F:F4:21:B0:7B:B1:98:6D:60:3C:66:8C:8C:EA:82

            X509v3 Extended Key Usage: 
                TLS Web Server Authentication
            X509v3 Key Usage: 
                Digital Signature, Key Encipherment
            X509v3 Subject Alternative Name: 
                DNS:servervpn01.cloudacia.net
    Signature Algorithm: sha256WithRSAEncryption
         1d:86:5a:b9:e8:bf:1f:20:5a:57:77:54:a8:03:ce:af:19:e4:
         52:f3:4e:3e:00:d9:2e:a0:bf:11:9f:8f:2d:d4:90:b5:ac:b1:
         b1:83:43:14:6e:32:f7:6e:c9:31:d6:a4:d3:fd:7b:cf:33:e9:
         4d:bc:a1:38:aa:6d:fc:49:1f:d3:d0:59:8d:b0:4f:7b:46:8f:
         e7:d5:cf:f9:43:16:91:ba:d8:06:c2:51:3a:5a:b4:46:e7:76:
         86:cc:d0:46:cd:e0:93:81:4b:0e:21:8e:da:6a:cd:cc:7a:0f:
         a2:96:64:05:d9:f9:f4:4f:a7:56:56:5e:1c:9d:79:7b:a6:fa:
         b8:f1:87:46:c4:aa:cd:2a:cb:65:f9:a5:29:d7:9e:39:7b:7a:
         31:87:2f:fe:62:d7:6d:6f:c5:1d:ce:f3:e9:0d:7f:af:cf:74:
         88:57:08:85:b9:cc:f4:80:d4:0d:8a:28:b0:98:1a:b8:59:eb:
         bb:d1:17:ef:49:10:1e:47:5f:da:c1:9e:14:31:4b:62:18:55:
         86:16:a5:cc:8a:2c:7f:f1:a8:e4:35:90:9d:0f:a2:e7:51:d7:
         b4:6c:53:16:39:3a:14:b0:cf:57:e2:55:4c:a8:a2:b0:5b:d6:
         10:96:cc:cd:50:be:f7:f4:74:2f:2a:cc:4c:a0:2e:ea:43:d5:
         75:86:07:be
-----BEGIN CERTIFICATE-----
MIIDjTCCAnWgAwIBAgIQdx0OjIUA62vrF030YOsbBDANBgkqhkiG9w0BAQsFADAW
MRQwEgYDVQQDDAtFYXN5LVJTQSBDQTAeFw0yMjA2MjIwNDE3NTJaFw0yNDA5MjQw
NDE3NTJaMCQxIjAgBgNVBAMMGXNlcnZlcnZwbjAxLmNsb3VkYWNpYS5uZXQwggEi
MA0GCSqGSIb3DQEBAQUAA4IBDwAwggEKAoIBAQDAd9WVwwqRMwPuq5Irj7T4uFMN
Ev/PaZP51I+VINMTwKStVTAXLMWkx/cL6BA7OiiYFb/C+GEJQl7IJ3ejCqPGdqIj
/o8KAIlZuyAaJLd1ik2NLS19UpGTEy54APfIpMAkgDDkEJQwOw1Dxk4hUYUBdMAT
QyA8xlO+1xLQJLdJ3g/E3cUYP2mgZLn6EGk9H3GTj4GsXXw7zNerQPq8KyS38cVH
wDlk0e2bFLW1kTXW03WnEwpJ88VAV582jPBB5WkhVt9NlfNtGLHvPKQQ97B80Ng9
pu0LNSCJcyx38CHrWv557Vwjiuyr4O4XzAxZzRRgHiLx7jBD5l3uOl0idMVbAgMB
AAGjgcgwgcUwCQYDVR0TBAIwADAdBgNVHQ4EFgQU1ku3RBu/yKVRPhJea48ZYvtL
RZ8wUQYDVR0jBEowSIAU+N26I2dKNnvawdzLyUecRUbLV5ihGqQYMBYxFDASBgNV
BAMMC0Vhc3ktUlNBIENBghRx4ICB2T/0IbB7sZhtYDxmjIzqgjATBgNVHSUEDDAK
BggrBgEFBQcDATALBgNVHQ8EBAMCBaAwJAYDVR0RBB0wG4IZc2VydmVydnBuMDEu
Y2xvdWRhY2lhLm5ldDANBgkqhkiG9w0BAQsFAAOCAQEAHYZauei/HyBaV3dUqAPO
rxnkUvNOPgDZLqC/EZ+PLdSQtayxsYNDFG4y927JMdak0/17zzPpTbyhOKpt/Ekf
09BZjbBPe0aP59XP+UMWkbrYBsJROlq0Rud2hszQRs3gk4FLDiGO2mrNzHoPopZk
Bdn59E+nVlZeHJ15e6b6uPGHRsSqzSrLZfmlKdeeOXt6MYcv/mLXbW/FHc7z6Q1/
r890iFcIhbnM9IDUDYoosJgauFnru9EX70kQHkdf2sGeFDFLYhhVhhalzIosf/Go
5DWQnQ+i51HXtGxTFjk6FLDPV+JVTKiisFvWEJbMzVC+9/R0LyrMTKAu6kPVdYYH
vg==
-----END CERTIFICATE-----
